target datalayout = "e-m:e-p270:32:32-p271:32:32-p272:64:64-i64:64-i128:128-f80:128-n8:16:32:64-S128"
target triple = "x86_64-pc-linux-gnu"

%"class.boost::container::pmr::pool_resource" = type { %"struct.boost::container::pmr::pool_options", ptr, %"class.boost::container::pmr::block_list_base", ptr, i64 }
%"struct.boost::container::pmr::pool_options" = type { i64, i64 }
%"class.boost::container::pmr::block_list_base" = type { %"struct.boost::container::pmr::list_node" }
%"struct.boost::container::pmr::list_node" = type { ptr, ptr }
%"class.boost::container::pmr::pool_data_t" = type { %"class.boost::container::pmr::block_slist_base", %"struct.boost::container::pmr::slist_node", i64 }
%"class.boost::container::pmr::block_slist_base" = type { %"struct.boost::container::pmr::slist_node" }
%"struct.boost::container::pmr::slist_node" = type { ptr }

@_ZN5boost9container3pmr48pool_options_minimum_largest_required_pool_blockE = linkonce_odr hidden constant i64 16, comdat, align 8

; Function Attrs: mustprogress nounwind uwtable
define linkonce_odr hidden noundef i64 @_ZN5boost9intrusive6detail20builtin_clz_dispatchImE4callEm(i64 noundef %0) #1 comdat align 2 {
  %2 = alloca i64, align 8
  store i64 %0, ptr %2, align 8, !tbaa !7
  %3 = load i64, ptr %2, align 8, !tbaa !7
  %4 = call i64 @llvm.ctlz.i64(i64 %3, i1 true)
  %5 = trunc i64 %4 to i32
  %6 = sext i32 %5 to i64
  ret i64 %6
}

; Function Attrs: noinline noreturn nounwind uwtable
define linkonce_odr hidden void @__clang_call_terminate(ptr noundef %0) #6 comdat {
  %2 = call ptr @__cxa_begin_catch(ptr %0) #13
  call void @_ZSt9terminatev() #14
  unreachable
}

; Function Attrs: mustprogress nounwind uwtable
define linkonce_odr hidden void @_ZN5boost9container3pmr17slist_node_traits8set_nextERKPNS1_10slist_nodeES6_(ptr noundef nonnull align 8 dereferenceable(8) %0, ptr noundef nonnull align 8 dereferenceable(8) %1) #1 comdat align 2 {
  %3 = alloca ptr, align 8
  %4 = alloca ptr, align 8
  store ptr %0, ptr %3, align 8, !tbaa !3
  store ptr %1, ptr %4, align 8, !tbaa !3
  %5 = load ptr, ptr %4, align 8, !tbaa !3
  %6 = load ptr, ptr %5, align 8, !tbaa !3
  %7 = load ptr, ptr %3, align 8, !tbaa !3
  %8 = load ptr, ptr %7, align 8, !tbaa !3
  %9 = getelementptr inbounds nuw %"struct.boost::container::pmr::slist_node", ptr %8, i32 0, i32 0
  store ptr %6, ptr %9, align 8, !tbaa !35
  ret void
}

; Function Attrs: inlinehint mustprogress uwtable
define linkonce_odr hidden noundef i64 @_ZN5boost9intrusive6detail10floor_log2Em(i64 noundef %0) #2 comdat {
  %2 = alloca i64, align 8
  store i64 %0, ptr %2, align 8, !tbaa !7
  %3 = load i64, ptr %2, align 8, !tbaa !7
  %4 = call noundef i64 @_ZN5boost9intrusive6detail20builtin_clz_dispatchImE4callEm(i64 noundef %3)
  %5 = sub i64 63, %4
  ret i64 %5
}

; Function Attrs: inlinehint mustprogress nounwind uwtable
define linkonce_odr hidden noundef zeroext i1 @_ZN5boost9intrusive6detail7is_pow2Em(i64 noundef %0) #4 comdat {
  %2 = alloca i64, align 8
  store i64 %0, ptr %2, align 8, !tbaa !7
  %3 = load i64, ptr %2, align 8, !tbaa !7
  %4 = load i64, ptr %2, align 8, !tbaa !7
  %5 = sub i64 %4, 1
  %6 = and i64 %3, %5
  %7 = icmp eq i64 %6, 0
  ret i1 %7
}

; Function Attrs: inlinehint mustprogress nounwind uwtable
define linkonce_odr hidden void @_ZN5boost9intrusive23linear_slist_algorithmsINS_9container3pmr17slist_node_traitsEE11init_headerEPNS3_10slist_nodeE(ptr noundef %0) #4 comdat align 2 personality ptr @__gxx_personality_v0 {
  %2 = alloca ptr, align 8
  %3 = alloca ptr, align 8
  store ptr %0, ptr %2, align 8, !tbaa !3
  call void @llvm.lifetime.start.p0(i64 8, ptr %3) #13
  store ptr null, ptr %3, align 8, !tbaa !3
  invoke void @_ZN5boost9container3pmr17slist_node_traits8set_nextERKPNS1_10slist_nodeES6_(ptr noundef nonnull align 8 dereferenceable(8) %2, ptr noundef nonnull align 8 dereferenceable(8) %3)
          to label %4 unwind label %5

4:                                                ; preds = %1
  call void @llvm.lifetime.end.p0(i64 8, ptr %3) #13
  ret void

5:                                                ; preds = %1
  %6 = landingpad { ptr, i32 }
          catch ptr null
  %7 = extractvalue { ptr, i32 } %6, 0
  call void @__clang_call_terminate(ptr %7) #14
  unreachable
}

; Function Attrs: mustprogress nounwind uwtable
define linkonce_odr hidden void @_ZN5boost9container3pmr16block_slist_baseINS1_18block_slist_headerEEC2Ev(ptr noundef nonnull align 8 dereferenceable(8) %0) unnamed_addr #1 comdat align 2 {
  %2 = alloca ptr, align 8
  store ptr %0, ptr %2, align 8, !tbaa !3
  %3 = load ptr, ptr %2, align 8
  %4 = getelementptr inbounds nuw %"class.boost::container::pmr::block_slist_base", ptr %3, i32 0, i32 0
  call void @_ZN5boost9intrusive23linear_slist_algorithmsINS_9container3pmr17slist_node_traitsEE11init_headerEPNS3_10slist_nodeE(ptr noundef %4) #13
  ret void
}

; Function Attrs: inlinehint mustprogress uwtable
define linkonce_odr hidden noundef i64 @_ZN5boost9intrusive6detail9ceil_log2Em(i64 noundef %0) #2 comdat {
  %2 = alloca i64, align 8
  store i64 %0, ptr %2, align 8, !tbaa !7
  %3 = load i64, ptr %2, align 8, !tbaa !7
  %4 = call noundef zeroext i1 @_ZN5boost9intrusive6detail7is_pow2Em(i64 noundef %3)
  %5 = xor i1 %4, true
  %6 = zext i1 %5 to i64
  %7 = load i64, ptr %2, align 8, !tbaa !7
  %8 = call noundef i64 @_ZN5boost9intrusive6detail10floor_log2Em(i64 noundef %7)
  %9 = add i64 %6, %8
  ret i64 %9
}

; Function Attrs: mustprogress nounwind uwtable
define linkonce_odr hidden noundef nonnull align 8 dereferenceable(8) ptr @_ZN5boost9container3dtl9max_valueImEERKT_S5_S5_(ptr noundef nonnull align 8 dereferenceable(8) %0, ptr noundef nonnull align 8 dereferenceable(8) %1) #1 comdat {
  %3 = alloca ptr, align 8
  %4 = alloca ptr, align 8
  store ptr %0, ptr %3, align 8, !tbaa !3
  store ptr %1, ptr %4, align 8, !tbaa !3
  %5 = load ptr, ptr %3, align 8, !tbaa !3
  %6 = load i64, ptr %5, align 8, !tbaa !7
  %7 = load ptr, ptr %4, align 8, !tbaa !3
  %8 = load i64, ptr %7, align 8, !tbaa !7
  %9 = icmp ugt i64 %6, %8
  br i1 %9, label %10, label %12

10:                                               ; preds = %2
  %11 = load ptr, ptr %3, align 8, !tbaa !3
  br label %14

12:                                               ; preds = %2
  %13 = load ptr, ptr %4, align 8, !tbaa !3
  br label %14

14:                                               ; preds = %12, %10
  %15 = phi ptr [ %11, %10 ], [ %13, %12 ]
  ret ptr %15
}

; Function Attrs: inlinehint mustprogress nounwind uwtable
define linkonce_odr hidden void @_ZdlPvS_21boost_container_new_t(ptr noundef %0, ptr noundef %1) #4 comdat {
  %3 = alloca ptr, align 8
  %4 = alloca ptr, align 8
  store ptr %0, ptr %3, align 8, !tbaa !3
  store ptr %1, ptr %4, align 8, !tbaa !3
  ret void
}

; Function Attrs: mustprogress uwtable
define linkonce_odr hidden void @_ZN5boost9container3pmr11pool_data_tC2Em(ptr noundef nonnull align 8 dereferenceable(24) %0, i64 noundef %1) unnamed_addr #0 comdat align 2 {
  %3 = alloca ptr, align 8
  %4 = alloca i64, align 8
  store ptr %0, ptr %3, align 8, !tbaa !3
  store i64 %1, ptr %4, align 8, !tbaa !7
  %5 = load ptr, ptr %3, align 8
  call void @_ZN5boost9container3pmr16block_slist_baseINS1_18block_slist_headerEEC2Ev(ptr noundef nonnull align 8 dereferenceable(8) %5)
  %6 = getelementptr inbounds nuw %"class.boost::container::pmr::pool_data_t", ptr %5, i32 0, i32 2
  %7 = load i64, ptr %4, align 8, !tbaa !7
  store i64 %7, ptr %6, align 8, !tbaa !21
  %8 = getelementptr inbounds nuw %"class.boost::container::pmr::pool_data_t", ptr %5, i32 0, i32 1
  call void @_ZN5boost9intrusive23linear_slist_algorithmsINS_9container3pmr17slist_node_traitsEE11init_headerEPNS3_10slist_nodeE(ptr noundef %8) #13
  ret void
}

; Function Attrs: inlinehint mustprogress nounwind uwtable
define linkonce_odr hidden noundef ptr @_ZnwmPv21boost_container_new_t(i64 noundef %0, ptr noundef %1) #4 comdat {
  %3 = alloca i64, align 8
  %4 = alloca ptr, align 8
  store i64 %0, ptr %3, align 8, !tbaa !7
  store ptr %1, ptr %4, align 8, !tbaa !3
  %5 = load ptr, ptr %4, align 8, !tbaa !3
  ret ptr %5
}

; Function Attrs: mustprogress uwtable
define linkonce_odr hidden noundef ptr @_ZN5boost9container3pmr15memory_resource8allocateEmm(ptr noundef nonnull align 8 dereferenceable(8) %0, i64 noundef %1, i64 noundef %2) #0 comdat align 2 {
  %4 = alloca ptr, align 8
  %5 = alloca i64, align 8
  %6 = alloca i64, align 8
  store ptr %0, ptr %4, align 8, !tbaa !3
  store i64 %1, ptr %5, align 8, !tbaa !7
  store i64 %2, ptr %6, align 8, !tbaa !7
  %7 = load ptr, ptr %4, align 8
  %8 = load i64, ptr %5, align 8, !tbaa !7
  %9 = load i64, ptr %5, align 8, !tbaa !7
  %10 = load i64, ptr %6, align 8, !tbaa !7
  %11 = load ptr, ptr %7, align 8, !tbaa !19
  %12 = getelementptr inbounds ptr, ptr %11, i64 2
  %13 = load ptr, ptr %12, align 8
  %14 = call noundef ptr %13(ptr noundef nonnull align 8 dereferenceable(8) %7, i64 noundef %9, i64 noundef %10)
  %15 = call noundef ptr @_ZnwmPv21boost_container_new_t(i64 noundef %8, ptr noundef %14)
  ret ptr %15
}

; Function Attrs: mustprogress uwtable
define hidden noundef i64 @_ZN5boost9container3pmr13pool_resource15priv_pool_indexEm(i64 noundef %0) #0 align 2 {
  %2 = alloca i64, align 8
  store i64 %0, ptr %2, align 8, !tbaa !7
  %3 = call noundef nonnull align 8 dereferenceable(8) ptr @_ZN5boost9container3dtl9max_valueImEERKT_S5_S5_(ptr noundef nonnull align 8 dereferenceable(8) %2, ptr noundef nonnull align 8 dereferenceable(8) @_ZN5boost9container3pmr48pool_options_minimum_largest_required_pool_blockE)
  %4 = load i64, ptr %3, align 8, !tbaa !7
  store i64 %4, ptr %2, align 8, !tbaa !7
  %5 = load i64, ptr %2, align 8, !tbaa !7
  %6 = call noundef i64 @_ZN5boost9intrusive6detail9ceil_log2Em(i64 noundef %5)
  %7 = call noundef i64 @_ZN5boost9intrusive6detail9ceil_log2Em(i64 noundef 16)
  %8 = sub i64 %6, %7
  ret i64 %8
}

; Function Attrs: mustprogress uwtable
define hidden void @_ZN5boost9container3pmr13pool_resource15priv_init_poolsEv(ptr noundef nonnull align 8 dereferenceable(56) %0) #0 align 2 personality ptr @__gxx_personality_v0 {
  %2 = alloca ptr, align 8
  %3 = alloca i64, align 8
  %4 = alloca ptr, align 8
  %5 = alloca i64, align 8
  %6 = alloca i64, align 8
  %7 = alloca ptr, align 8
  %8 = alloca i32, align 4
  store ptr %0, ptr %2, align 8, !tbaa !3
  %9 = load ptr, ptr %2, align 8
  call void @llvm.lifetime.start.p0(i64 8, ptr %3) #13
  %10 = getelementptr inbounds nuw %"class.boost::container::pmr::pool_resource", ptr %9, i32 0, i32 0
  %11 = getelementptr inbounds nuw %"struct.boost::container::pmr::pool_options", ptr %10, i32 0, i32 1
  %12 = load i64, ptr %11, align 8, !tbaa !9
  %13 = call noundef i64 @_ZN5boost9container3pmr13pool_resource15priv_pool_indexEm(i64 noundef %12)
  %14 = add i64 %13, 1
  store i64 %14, ptr %3, align 8, !tbaa !7
  call void @llvm.lifetime.start.p0(i64 8, ptr %4) #13
  store ptr null, ptr %4, align 8, !tbaa !3
  %15 = getelementptr inbounds nuw %"class.boost::container::pmr::pool_resource", ptr %9, i32 0, i32 1
  %16 = load ptr, ptr %15, align 8, !tbaa !14
  %17 = load i64, ptr %3, align 8, !tbaa !7
  %18 = mul i64 24, %17
  %19 = call noundef ptr @_ZN5boost9container3pmr15memory_resource8allocateEmm(ptr noundef nonnull align 8 dereferenceable(8) %16, i64 noundef %18, i64 noundef 16)
  store ptr %19, ptr %4, align 8, !tbaa !3
  %20 = load ptr, ptr %4, align 8, !tbaa !3
  %21 = getelementptr inbounds nuw %"class.boost::container::pmr::pool_resource", ptr %9, i32 0, i32 3
  store ptr %20, ptr %21, align 8, !tbaa !15
  call void @llvm.lifetime.start.p0(i64 8, ptr %5) #13
  store i64 0, ptr %5, align 8, !tbaa !7
  call void @llvm.lifetime.start.p0(i64 8, ptr %6) #13
  %22 = load i64, ptr %3, align 8, !tbaa !7
  store i64 %22, ptr %6, align 8, !tbaa !7
  br label %23

23:                                               ; preds = %35, %1
  %24 = load i64, ptr %5, align 8, !tbaa !7
  %25 = load i64, ptr %6, align 8, !tbaa !7
  %26 = icmp ne i64 %24, %25
  br i1 %26, label %28, label %27

27:                                               ; preds = %23
  call void @llvm.lifetime.end.p0(i64 8, ptr %6) #13
  call void @llvm.lifetime.end.p0(i64 8, ptr %5) #13
  br label %42

28:                                               ; preds = %23
  %29 = getelementptr inbounds nuw %"class.boost::container::pmr::pool_resource", ptr %9, i32 0, i32 3
  %30 = load ptr, ptr %29, align 8, !tbaa !15
  %31 = load i64, ptr %5, align 8, !tbaa !7
  %32 = getelementptr inbounds nuw %"class.boost::container::pmr::pool_data_t", ptr %30, i64 %31
  %33 = call noundef ptr @_ZnwmPv21boost_container_new_t(i64 noundef 24, ptr noundef %32)
  invoke void @_ZN5boost9container3pmr11pool_data_tC2Em(ptr noundef nonnull align 8 dereferenceable(24) %33, i64 noundef 1)
          to label %34 unwind label %38

34:                                               ; preds = %28
  br label %35

35:                                               ; preds = %34
  %36 = load i64, ptr %5, align 8, !tbaa !7
  %37 = add i64 %36, 1
  store i64 %37, ptr %5, align 8, !tbaa !7
  br label %23, !llvm.loop !16

38:                                               ; preds = %28
  %39 = landingpad { ptr, i32 }
          cleanup
  %40 = extractvalue { ptr, i32 } %39, 0
  store ptr %40, ptr %7, align 8
  %41 = extractvalue { ptr, i32 } %39, 1
  store i32 %41, ptr %8, align 4
  call void @_ZdlPvS_21boost_container_new_t(ptr noundef %33, ptr noundef %32) #13
  call void @llvm.lifetime.end.p0(i64 8, ptr %6) #13
  call void @llvm.lifetime.end.p0(i64 8, ptr %5) #13
  call void @llvm.lifetime.end.p0(i64 8, ptr %4) #13
  call void @llvm.lifetime.end.p0(i64 8, ptr %3) #13
  br label %45

42:                                               ; preds = %27
  %43 = load i64, ptr %3, align 8, !tbaa !7
  %44 = getelementptr inbounds nuw %"class.boost::container::pmr::pool_resource", ptr %9, i32 0, i32 4
  store i64 %43, ptr %44, align 8, !tbaa !18
  call void @llvm.lifetime.end.p0(i64 8, ptr %4) #13
  call void @llvm.lifetime.end.p0(i64 8, ptr %3) #13
  ret void

45:                                               ; preds = %38
  %46 = load ptr, ptr %7, align 8
  %47 = load i32, ptr %8, align 4
  %48 = insertvalue { ptr, i32 } poison, ptr %46, 0
  %49 = insertvalue { ptr, i32 } %48, i32 %47, 1
  resume { ptr, i32 } %49
}