; Function Attrs: mustprogress uwtable
define hidden void @_ZN5boost9container3pmr13pool_resource15priv_init_poolsEv(ptr nocapture noundef nonnull align 8 dereferenceable(56) %0) local_unnamed_addr #2 align 2 personality ptr @__gxx_personality_v0 {
.lr.ph.preheader:
  %1 = getelementptr inbounds nuw i8, ptr %0, i64 8
  %2 = load i64, ptr %1, align 8, !tbaa !7
  %.sroa.speculated.i = tail call i64 @llvm.umax.i64(i64 %2, i64 16)
  %3 = add i64 %.sroa.speculated.i, -1
  %4 = tail call range(i64 0, 65) i64 @llvm.ctlz.i64(i64 %3, i1 false)
  %5 = sub nuw nsw i64 61, %4
  %6 = getelementptr inbounds nuw i8, ptr %0, i64 16
  %7 = load ptr, ptr %6, align 8, !tbaa !13
  %8 = mul nuw nsw i64 %5, 24
  %9 = load ptr, ptr %7, align 8, !tbaa !14
  %10 = getelementptr inbounds i8, ptr %9, i64 16
  %11 = load ptr, ptr %10, align 8
  %12 = tail call noundef ptr %11(ptr noundef nonnull align 8 dereferenceable(8) %7, i64 noundef %8, i64 noundef 16)
  %13 = getelementptr inbounds nuw i8, ptr %0, i64 40
  store ptr %12, ptr %13, align 8, !tbaa !16
  br label %.lr.ph

._crit_edge:                                      ; preds = %.lr.ph
  %14 = getelementptr inbounds nuw i8, ptr %0, i64 48
  store i64 %5, ptr %14, align 8, !tbaa !17
  ret void

.lr.ph:                                           ; preds = %.lr.ph.preheader, %.lr.ph
  %.012 = phi i64 [ %18, %.lr.ph ], [ 0, %.lr.ph.preheader ]
  %15 = getelementptr inbounds nuw %"class.boost::container::pmr::pool_data_t", ptr %12, i64 %.012
  store ptr null, ptr %15, align 8, !tbaa !18
  %16 = getelementptr inbounds nuw i8, ptr %15, i64 16
  store i64 1, ptr %16, align 8, !tbaa !20
  %17 = getelementptr inbounds nuw i8, ptr %15, i64 8
  store ptr null, ptr %17, align 8, !tbaa !18
  %18 = add nuw i64 %.012, 1
  %.not = icmp eq i64 %18, %5
  br i1 %.not, label %._crit_edge, label %.lr.ph, !llvm.loop !23
}